; Function Attrs: nounwind uwtable
define hidden void @zim_SplFileObject_setMaxLineLen(ptr nocapture noundef readonly %0, ptr nocapture readnone %1) #0 {
  %3 = alloca i64, align 8
  %4 = getelementptr inbounds i8, ptr %0, i64 32
  %5 = load ptr, ptr %4, align 8
  %6 = getelementptr inbounds i8, ptr %0, i64 44
  %7 = load i32, ptr %6, align 4
  %8 = call i32 (i32, ptr, ...) @zend_parse_parameters(i32 noundef %7, ptr noundef nonnull @.str.1, ptr noundef nonnull %3) #18
  %9 = icmp eq i32 %8, -1
  br i1 %9, label %10, label %13

10:                                               ; preds = %2
  %11 = load ptr, ptr getelementptr inbounds (%struct._zend_executor_globals, ptr @executor_globals, i64 0, i32 50), align 8
  %12 = icmp ne ptr %11, null
  call void @llvm.assume(i1 %12)
  br label %21

13:                                               ; preds = %2
  %14 = load i64, ptr %3, align 8
  %15 = icmp slt i64 %14, 0
  br i1 %15, label %16, label %19

16:                                               ; preds = %13
  call void (i32, ptr, ...) @zend_argument_value_error(i32 noundef 1, ptr noundef nonnull @.str.22) #18
  %17 = load ptr, ptr getelementptr inbounds (%struct._zend_executor_globals, ptr @executor_globals, i64 0, i32 50), align 8
  %18 = icmp ne ptr %17, null
  call void @llvm.assume(i1 %18)
  br label %21

19:                                               ; preds = %13
  %20 = getelementptr inbounds i8, ptr %5, i64 -248
  store i64 %14, ptr %20, align 8
  br label %21

21:                                               ; preds = %19, %16, %10
  ret void
}